target datalayout = "e-m:e-p270:32:32-p271:32:32-p272:64:64-i64:64-i128:128-f80:128-n8:16:32:64-S128"
target triple = "x86_64-unknown-linux-gnu"

%"class.FLAC::Metadata::Prototype" = type <{ ptr, ptr, i8, [7 x i8] }>

; Function Attrs: mustprogress sspstrong uwtable
define noundef zeroext i1 @_ZNK4FLAC8Metadata8CueSheet8is_legalEbPPKc(ptr noundef nonnull align 8 dereferenceable(17) %this, i1 noundef zeroext %check_cd_da_subset, ptr noundef %violation) #0 align 2 {
entry:
  %this.addr = alloca ptr, align 8
  %check_cd_da_subset.addr = alloca i8, align 1
  %violation.addr = alloca ptr, align 8
  store ptr %this, ptr %this.addr, align 8
  %frombool = zext i1 %check_cd_da_subset to i8
  store i8 %frombool, ptr %check_cd_da_subset.addr, align 1
  store ptr %violation, ptr %violation.addr, align 8
  %this1 = load ptr, ptr %this.addr, align 8
  %object_ = getelementptr inbounds %"class.FLAC::Metadata::Prototype", ptr %this1, i32 0, i32 1
  %0 = load ptr, ptr %object_, align 8
  %1 = load i8, ptr %check_cd_da_subset.addr, align 1
  %tobool = trunc i8 %1 to i1
  %conv = zext i1 %tobool to i32
  %2 = load ptr, ptr %violation.addr, align 8
  %call = call i32 @FLAC__metadata_object_cuesheet_is_legal(ptr noundef %0, i32 noundef %conv, ptr noundef %2)
  %tobool2 = icmp ne i32 %call, 0
  ret i1 %tobool2
}