; Function Attrs: mustprogress sspstrong uwtable
define noundef zeroext i1 @_ZNK4FLAC8Metadata8CueSheet8is_legalEbPPKc(ptr nocapture noundef nonnull readonly align 8 dereferenceable(17) %this, i1 noundef zeroext %check_cd_da_subset, ptr noundef %violation) local_unnamed_addr #0 align 2 {
entry:
  %object_ = getelementptr inbounds i8, ptr %this, i64 8
  %0 = load ptr, ptr %object_, align 8
  %conv = zext i1 %check_cd_da_subset to i32
  %call = tail call i32 @FLAC__metadata_object_cuesheet_is_legal(ptr noundef %0, i32 noundef %conv, ptr noundef %violation)
  %tobool2 = icmp ne i32 %call, 0
  ret i1 %tobool2
}